target datalayout = "e-m:e-p270:32:32-p271:32:32-p272:64:64-i64:64-i128:128-f80:128-n8:16:32:64-S128"
target triple = "x86_64-pc-linux-gnu"

%struct.FT_HashRec_ = type { i32, i32, i32, ptr, ptr, ptr }
%union.FT_Hashkey_ = type { ptr }
%struct.FT_HashnodeRec_ = type { %union.FT_Hashkey_, i64 }

; Function Attrs: nounwind uwtable
define internal ptr @hash_bucket(ptr %0, ptr noundef %1) #0 {
  %3 = alloca %union.FT_Hashkey_, align 8
  %4 = alloca ptr, align 8
  %5 = alloca i64, align 8
  %6 = alloca ptr, align 8
  %7 = alloca ptr, align 8
  %8 = getelementptr inbounds nuw %union.FT_Hashkey_, ptr %3, i32 0, i32 0
  store ptr %0, ptr %8, align 8
  store ptr %1, ptr %4, align 8, !tbaa !225
  call void @llvm.lifetime.start.p0(i64 8, ptr %5) #10
  store i64 0, ptr %5, align 8, !tbaa !47
  call void @llvm.lifetime.start.p0(i64 8, ptr %6) #10
  %9 = load ptr, ptr %4, align 8, !tbaa !225
  %10 = getelementptr inbounds nuw %struct.FT_HashRec_, ptr %9, i32 0, i32 5
  %11 = load ptr, ptr %10, align 8, !tbaa !234
  store ptr %11, ptr %6, align 8, !tbaa !235
  call void @llvm.lifetime.start.p0(i64 8, ptr %7) #10
  %12 = load ptr, ptr %4, align 8, !tbaa !225
  %13 = getelementptr inbounds nuw %struct.FT_HashRec_, ptr %12, i32 0, i32 3
  %14 = load ptr, ptr %13, align 8, !tbaa !232
  %15 = call i64 %14(ptr noundef %3)
  store i64 %15, ptr %5, align 8, !tbaa !47
  %16 = load ptr, ptr %6, align 8, !tbaa !235
  %17 = load i64, ptr %5, align 8, !tbaa !47
  %18 = load ptr, ptr %4, align 8, !tbaa !225
  %19 = getelementptr inbounds nuw %struct.FT_HashRec_, ptr %18, i32 0, i32 1
  %20 = load i32, ptr %19, align 4, !tbaa !227
  %21 = zext i32 %20 to i64
  %22 = urem i64 %17, %21
  %23 = getelementptr inbounds nuw ptr, ptr %16, i64 %22
  store ptr %23, ptr %7, align 8, !tbaa !235
  br label %24

24:                                               ; preds = %52, %2
  %25 = load ptr, ptr %7, align 8, !tbaa !235
  %26 = load ptr, ptr %25, align 8, !tbaa !236
  %27 = icmp ne ptr %26, null
  br i1 %27, label %28, label %53

28:                                               ; preds = %24
  %29 = load ptr, ptr %4, align 8, !tbaa !225
  %30 = getelementptr inbounds nuw %struct.FT_HashRec_, ptr %29, i32 0, i32 4
  %31 = load ptr, ptr %30, align 8, !tbaa !233
  %32 = load ptr, ptr %7, align 8, !tbaa !235
  %33 = load ptr, ptr %32, align 8, !tbaa !236
  %34 = getelementptr inbounds nuw %struct.FT_HashnodeRec_, ptr %33, i32 0, i32 0
  %35 = call zeroext i8 %31(ptr noundef %34, ptr noundef %3)
  %36 = icmp ne i8 %35, 0
  br i1 %36, label %37, label %38

37:                                               ; preds = %28
  br label %53

38:                                               ; preds = %28
  %39 = load ptr, ptr %7, align 8, !tbaa !235
  %40 = getelementptr inbounds ptr, ptr %39, i32 -1
  store ptr %40, ptr %7, align 8, !tbaa !235
  %41 = load ptr, ptr %7, align 8, !tbaa !235
  %42 = load ptr, ptr %6, align 8, !tbaa !235
  %43 = icmp ult ptr %41, %42
  br i1 %43, label %44, label %52

44:                                               ; preds = %38
  %45 = load ptr, ptr %6, align 8, !tbaa !235
  %46 = load ptr, ptr %4, align 8, !tbaa !225
  %47 = getelementptr inbounds nuw %struct.FT_HashRec_, ptr %46, i32 0, i32 1
  %48 = load i32, ptr %47, align 4, !tbaa !227
  %49 = sub i32 %48, 1
  %50 = zext i32 %49 to i64
  %51 = getelementptr inbounds nuw ptr, ptr %45, i64 %50
  store ptr %51, ptr %7, align 8, !tbaa !235
  br label %52

52:                                               ; preds = %44, %38
  br label %24, !llvm.loop !687

53:                                               ; preds = %37, %24
  %54 = load ptr, ptr %7, align 8, !tbaa !235
  call void @llvm.lifetime.end.p0(i64 8, ptr %7) #10
  call void @llvm.lifetime.end.p0(i64 8, ptr %6) #10
  call void @llvm.lifetime.end.p0(i64 8, ptr %5) #10
  ret ptr %54
}

; Function Attrs: nounwind uwtable
define internal ptr @hash_lookup(ptr %0, ptr noundef %1) #0 {
  %3 = alloca %union.FT_Hashkey_, align 8
  %4 = alloca ptr, align 8
  %5 = alloca ptr, align 8
  %6 = getelementptr inbounds nuw %union.FT_Hashkey_, ptr %3, i32 0, i32 0
  store ptr %0, ptr %6, align 8
  store ptr %1, ptr %4, align 8, !tbaa !225
  call void @llvm.lifetime.start.p0(i64 8, ptr %5) #10
  %7 = load ptr, ptr %4, align 8, !tbaa !225
  %8 = getelementptr inbounds nuw %union.FT_Hashkey_, ptr %3, i32 0, i32 0
  %9 = load ptr, ptr %8, align 8
  %10 = call ptr @hash_bucket(ptr %9, ptr noundef %7)
  store ptr %10, ptr %5, align 8, !tbaa !235
  %11 = load ptr, ptr %5, align 8, !tbaa !235
  %12 = load ptr, ptr %11, align 8, !tbaa !236
  %13 = icmp ne ptr %12, null
  br i1 %13, label %14, label %18

14:                                               ; preds = %2
  %15 = load ptr, ptr %5, align 8, !tbaa !235
  %16 = load ptr, ptr %15, align 8, !tbaa !236
  %17 = getelementptr inbounds nuw %struct.FT_HashnodeRec_, ptr %16, i32 0, i32 1
  br label %19

18:                                               ; preds = %2
  br label %19

19:                                               ; preds = %18, %14
  %20 = phi ptr [ %17, %14 ], [ null, %18 ]
  call void @llvm.lifetime.end.p0(i64 8, ptr %5) #10
  ret ptr %20
}

; Function Attrs: nounwind uwtable
define hidden ptr @ft_hash_num_lookup(i32 noundef %0, ptr noundef %1) #0 {
  %3 = alloca i32, align 4
  %4 = alloca ptr, align 8
  %5 = alloca %union.FT_Hashkey_, align 8
  store i32 %0, ptr %3, align 4, !tbaa !8
  store ptr %1, ptr %4, align 8, !tbaa !225
  call void @llvm.lifetime.start.p0(i64 8, ptr %5) #10
  %6 = load i32, ptr %3, align 4, !tbaa !8
  store i32 %6, ptr %5, align 8, !tbaa !64
  %7 = load ptr, ptr %4, align 8, !tbaa !225
  %8 = getelementptr inbounds nuw %union.FT_Hashkey_, ptr %5, i32 0, i32 0
  %9 = load ptr, ptr %8, align 8
  %10 = call ptr @hash_lookup(ptr %9, ptr noundef %7)
  call void @llvm.lifetime.end.p0(i64 8, ptr %5) #10
  ret ptr %10
}