; Function Attrs: nounwind uwtable
define hidden ptr @ft_hash_num_lookup(i32 noundef %0, ptr noundef readonly captures(none) %1) local_unnamed_addr #0 {
  %3 = alloca %union.FT_Hashkey_, align 8
  %.sroa.0.0.insert.ext = zext i32 %0 to i64
  %4 = inttoptr i64 %.sroa.0.0.insert.ext to ptr
  call void @llvm.lifetime.start.p0(i64 8, ptr nonnull %3)
  store ptr %4, ptr %3, align 8
  %5 = getelementptr inbounds nuw i8, ptr %1, i64 32
  %6 = load ptr, ptr %5, align 8, !tbaa !217
  %7 = getelementptr inbounds nuw i8, ptr %1, i64 16
  %8 = load ptr, ptr %7, align 8, !tbaa !215
  %9 = call i64 %8(ptr noundef nonnull %3) #34
  %10 = getelementptr inbounds nuw i8, ptr %1, i64 4
  %11 = load i32, ptr %10, align 4, !tbaa !210
  %12 = zext i32 %11 to i64
  %13 = urem i64 %9, %12
  %14 = getelementptr inbounds nuw ptr, ptr %6, i64 %13
  %15 = getelementptr inbounds nuw i8, ptr %1, i64 24
  %16 = load ptr, ptr %14, align 8, !tbaa !218
  %.not17.i.i = icmp eq ptr %16, null
  br i1 %.not17.i.i, label %hash_lookup.exit, label %.lr.ph.i.i

.lr.ph.i.i:                                       ; preds = %2, %28
  %17 = phi ptr [ %29, %28 ], [ %16, %2 ]
  %.018.i.i = phi ptr [ %.1.i.i, %28 ], [ %14, %2 ]
  %18 = load ptr, ptr %15, align 8, !tbaa !216
  %19 = call zeroext i8 %18(ptr noundef nonnull %17, ptr noundef nonnull %3) #34
  %.not16.i.i = icmp eq i8 %19, 0
  br i1 %.not16.i.i, label %20, label %hash_lookup.exit

20:                                               ; preds = %.lr.ph.i.i
  %21 = getelementptr inbounds i8, ptr %.018.i.i, i64 -8
  %22 = icmp ult ptr %21, %6
  br i1 %22, label %23, label %28

23:                                               ; preds = %20
  %24 = load i32, ptr %10, align 4, !tbaa !210
  %25 = add i32 %24, -1
  %26 = zext i32 %25 to i64
  %27 = getelementptr inbounds nuw ptr, ptr %6, i64 %26
  br label %28

28:                                               ; preds = %23, %20
  %.1.i.i = phi ptr [ %27, %23 ], [ %21, %20 ]
  %29 = load ptr, ptr %.1.i.i, align 8, !tbaa !218
  %.not.i.i = icmp eq ptr %29, null
  br i1 %.not.i.i, label %hash_lookup.exit, label %.lr.ph.i.i, !llvm.loop !221

hash_lookup.exit:                                 ; preds = %.lr.ph.i.i, %28, %2
  %.0.lcssa.i.i = phi ptr [ %14, %2 ], [ %.018.i.i, %.lr.ph.i.i ], [ %.1.i.i, %28 ]
  call void @llvm.lifetime.end.p0(i64 8, ptr nonnull %3)
  %30 = load ptr, ptr %.0.lcssa.i.i, align 8, !tbaa !218
  %.not.i = icmp eq ptr %30, null
  %31 = getelementptr inbounds nuw i8, ptr %30, i64 8
  %spec.select.i = select i1 %.not.i, ptr null, ptr %31
  ret ptr %spec.select.i
}